target datalayout = "e-m:e-p270:32:32-p271:32:32-p272:64:64-i64:64-i128:128-f80:128-n8:16:32:64-S128"
target triple = "x86_64-pc-linux-gnu"

%"class.VrmlTranslator::Token" = type { i32, i32, i32, i32, ptr, ptr }
%"class.VrmlTranslator::Scanner" = type { ptr, ptr, ptr, ptr, i8, i32, i32, i32, i32, %"class.VrmlTranslator::StartStates", %"class.VrmlTranslator::KeywordMap", ptr, ptr, i32, i32, ptr, ptr, i32, i32, i32, i32, i32, ptr }
%"class.VrmlTranslator::StartStates" = type { ptr, ptr }
%"class.VrmlTranslator::KeywordMap" = type { ptr, ptr }

; Function Attrs: mustprogress nounwind uwtable
define void @_ZN14VrmlTranslator7Scanner15CreateHeapBlockEv(ptr noundef nonnull align 8 dereferenceable(160) %0) #0 align 2 {
  %2 = alloca ptr, align 8
  %3 = alloca ptr, align 8
  %4 = alloca ptr, align 8
  store ptr %0, ptr %2, align 8
  %5 = load ptr, ptr %2, align 8
  %6 = getelementptr inbounds %"class.VrmlTranslator::Scanner", ptr %5, i32 0, i32 0
  %7 = load ptr, ptr %6, align 8
  store ptr %7, ptr %4, align 8
  br label %8

8:                                                ; preds = %21, %1
  %9 = getelementptr inbounds %"class.VrmlTranslator::Scanner", ptr %5, i32 0, i32 15
  %10 = load ptr, ptr %9, align 8
  %11 = load ptr, ptr %4, align 8
  %12 = icmp ult ptr %10, %11
  br i1 %12, label %19, label %13

13:                                               ; preds = %8
  %14 = getelementptr inbounds %"class.VrmlTranslator::Scanner", ptr %5, i32 0, i32 15
  %15 = load ptr, ptr %14, align 8
  %16 = load ptr, ptr %4, align 8
  %17 = getelementptr inbounds i8, ptr %16, i64 65536
  %18 = icmp ugt ptr %15, %17
  br label %19

19:                                               ; preds = %13, %8
  %20 = phi i1 [ true, %8 ], [ %18, %13 ]
  br i1 %20, label %21, label %29

21:                                               ; preds = %19
  %22 = load ptr, ptr %4, align 8
  %23 = getelementptr inbounds i8, ptr %22, i64 65536
  %24 = load ptr, ptr %23, align 8
  store ptr %24, ptr %4, align 8
  %25 = getelementptr inbounds %"class.VrmlTranslator::Scanner", ptr %5, i32 0, i32 0
  %26 = load ptr, ptr %25, align 8
  call void @free(ptr noundef %26) #12
  %27 = load ptr, ptr %4, align 8
  %28 = getelementptr inbounds %"class.VrmlTranslator::Scanner", ptr %5, i32 0, i32 0
  store ptr %27, ptr %28, align 8
  br label %8, !llvm.loop !33

29:                                               ; preds = %19
  %30 = call noalias ptr @malloc(i64 noundef 65544) #18
  store ptr %30, ptr %3, align 8
  %31 = load ptr, ptr %3, align 8
  %32 = getelementptr inbounds %"class.VrmlTranslator::Scanner", ptr %5, i32 0, i32 3
  %33 = load ptr, ptr %32, align 8
  store ptr %31, ptr %33, align 8
  %34 = load ptr, ptr %3, align 8
  %35 = getelementptr inbounds i8, ptr %34, i64 65536
  %36 = getelementptr inbounds %"class.VrmlTranslator::Scanner", ptr %5, i32 0, i32 3
  store ptr %35, ptr %36, align 8
  %37 = getelementptr inbounds %"class.VrmlTranslator::Scanner", ptr %5, i32 0, i32 3
  %38 = load ptr, ptr %37, align 8
  store ptr null, ptr %38, align 8
  %39 = load ptr, ptr %3, align 8
  %40 = getelementptr inbounds %"class.VrmlTranslator::Scanner", ptr %5, i32 0, i32 1
  store ptr %39, ptr %40, align 8
  %41 = getelementptr inbounds %"class.VrmlTranslator::Scanner", ptr %5, i32 0, i32 1
  %42 = load ptr, ptr %41, align 8
  %43 = getelementptr inbounds %"class.VrmlTranslator::Scanner", ptr %5, i32 0, i32 2
  store ptr %42, ptr %43, align 8
  ret void
}

; Function Attrs: mustprogress nounwind uwtable
define noundef ptr @_ZN14VrmlTranslator7Scanner11CreateTokenEv(ptr noundef nonnull align 8 dereferenceable(160) %0) #0 align 2 {
  %2 = alloca ptr, align 8
  %3 = alloca ptr, align 8
  store ptr %0, ptr %2, align 8
  %4 = load ptr, ptr %2, align 8
  %5 = getelementptr inbounds %"class.VrmlTranslator::Scanner", ptr %4, i32 0, i32 2
  %6 = load ptr, ptr %5, align 8
  %7 = getelementptr inbounds i8, ptr %6, i64 32
  %8 = getelementptr inbounds %"class.VrmlTranslator::Scanner", ptr %4, i32 0, i32 3
  %9 = load ptr, ptr %8, align 8
  %10 = icmp uge ptr %7, %9
  br i1 %10, label %11, label %12

11:                                               ; preds = %1
  call void @_ZN14VrmlTranslator7Scanner15CreateHeapBlockEv(ptr noundef nonnull align 8 dereferenceable(160) %4)
  br label %12

12:                                               ; preds = %11, %1
  %13 = getelementptr inbounds %"class.VrmlTranslator::Scanner", ptr %4, i32 0, i32 2
  %14 = load ptr, ptr %13, align 8
  store ptr %14, ptr %3, align 8
  %15 = getelementptr inbounds %"class.VrmlTranslator::Scanner", ptr %4, i32 0, i32 2
  %16 = load ptr, ptr %15, align 8
  %17 = getelementptr inbounds i8, ptr %16, i64 32
  %18 = getelementptr inbounds %"class.VrmlTranslator::Scanner", ptr %4, i32 0, i32 2
  store ptr %17, ptr %18, align 8
  %19 = load ptr, ptr %3, align 8
  %20 = getelementptr inbounds %"class.VrmlTranslator::Token", ptr %19, i32 0, i32 4
  store ptr null, ptr %20, align 8
  %21 = load ptr, ptr %3, align 8
  %22 = getelementptr inbounds %"class.VrmlTranslator::Token", ptr %21, i32 0, i32 5
  store ptr null, ptr %22, align 8
  %23 = load ptr, ptr %3, align 8
  ret ptr %23
}