; Function Attrs: mustprogress nounwind uwtable
define noundef ptr @_ZN14VrmlTranslator7Scanner11CreateTokenEv(ptr nocapture noundef nonnull align 8 dereferenceable(160) %0) local_unnamed_addr #0 align 2 {
  %2 = getelementptr inbounds i8, ptr %0, i64 16
  %3 = load ptr, ptr %2, align 8
  %4 = getelementptr inbounds i8, ptr %3, i64 32
  %5 = getelementptr inbounds i8, ptr %0, i64 24
  %6 = load ptr, ptr %5, align 8
  %.not = icmp ult ptr %4, %6
  br i1 %.not, label %25, label %7

7:                                                ; preds = %1
  %8 = load ptr, ptr %0, align 8
  %9 = getelementptr inbounds i8, ptr %0, i64 112
  %10 = load ptr, ptr %9, align 8
  %11 = icmp ult ptr %10, %8
  %12 = getelementptr inbounds i8, ptr %8, i64 65536
  %13 = icmp ugt ptr %10, %12
  %or.cond10.i = select i1 %11, i1 true, i1 %13
  br i1 %or.cond10.i, label %.critedge.i, label %_ZN14VrmlTranslator7Scanner15CreateHeapBlockEv.exit

.critedge.i:                                      ; preds = %7, %.critedge.i
  %14 = phi ptr [ %16, %.critedge.i ], [ %8, %7 ]
  %15 = phi ptr [ %19, %.critedge.i ], [ %12, %7 ]
  %16 = load ptr, ptr %15, align 8
  tail call void @free(ptr noundef %14) #22
  store ptr %16, ptr %0, align 8
  %17 = load ptr, ptr %9, align 8
  %18 = icmp ult ptr %17, %16
  %19 = getelementptr inbounds i8, ptr %16, i64 65536
  %20 = icmp ugt ptr %17, %19
  %or.cond.i = select i1 %18, i1 true, i1 %20
  br i1 %or.cond.i, label %.critedge.i, label %_ZN14VrmlTranslator7Scanner15CreateHeapBlockEv.exit.loopexit, !llvm.loop !21

_ZN14VrmlTranslator7Scanner15CreateHeapBlockEv.exit.loopexit: ; preds = %.critedge.i
  %.pre = load ptr, ptr %5, align 8
  br label %_ZN14VrmlTranslator7Scanner15CreateHeapBlockEv.exit

_ZN14VrmlTranslator7Scanner15CreateHeapBlockEv.exit: ; preds = %_ZN14VrmlTranslator7Scanner15CreateHeapBlockEv.exit.loopexit, %7
  %21 = phi ptr [ %.pre, %_ZN14VrmlTranslator7Scanner15CreateHeapBlockEv.exit.loopexit ], [ %6, %7 ]
  %22 = tail call noalias dereferenceable_or_null(65544) ptr @malloc(i64 noundef 65544) #25
  store ptr %22, ptr %21, align 8
  %23 = getelementptr inbounds i8, ptr %22, i64 65536
  store ptr %23, ptr %5, align 8
  store ptr null, ptr %23, align 8
  %24 = getelementptr inbounds i8, ptr %0, i64 8
  store ptr %22, ptr %24, align 8
  br label %25

25:                                               ; preds = %_ZN14VrmlTranslator7Scanner15CreateHeapBlockEv.exit, %1
  %26 = phi ptr [ %22, %_ZN14VrmlTranslator7Scanner15CreateHeapBlockEv.exit ], [ %3, %1 ]
  %27 = getelementptr inbounds i8, ptr %26, i64 32
  store ptr %27, ptr %2, align 8
  %28 = getelementptr inbounds i8, ptr %26, i64 16
  tail call void @llvm.memset.p0.i64(ptr noundef nonnull align 8 dereferenceable(16) %28, i8 0, i64 16, i1 false)
  ret ptr %26
}